target datalayout = "e-m:e-p270:32:32-p271:32:32-p272:64:64-i64:64-i128:128-f80:128-n8:16:32:64-S128"
target triple = "x86_64-pc-linux-gnu"

%struct.http_header_entry_t = type { ptr, ptr }

; Function Attrs: nounwind uwtable
define internal i32 @_http_header_find_key(ptr noundef %0, ptr noundef %1) #0 {
  %3 = alloca i32, align 4
  %4 = alloca ptr, align 8
  %5 = alloca ptr, align 8
  %6 = alloca ptr, align 8
  %7 = alloca ptr, align 8
  %8 = alloca i32, align 4
  store ptr %0, ptr %4, align 8
  store ptr %1, ptr %5, align 8
  call void @llvm.lifetime.start.p0(i64 8, ptr %6) #8
  %9 = load ptr, ptr %4, align 8
  store ptr %9, ptr %6, align 8
  call void @llvm.lifetime.start.p0(i64 8, ptr %7) #8
  %10 = load ptr, ptr %5, align 8
  store ptr %10, ptr %7, align 8
  %11 = load ptr, ptr %7, align 8
  %12 = icmp eq ptr %11, null
  br i1 %12, label %13, label %14

13:                                               ; preds = %2
  store i32 0, ptr %3, align 4
  store i32 1, ptr %8, align 4
  br label %28

14:                                               ; preds = %2
  %15 = load ptr, ptr %6, align 8
  %16 = getelementptr inbounds nuw %struct.http_header_entry_t, ptr %15, i32 0, i32 0
  %17 = load ptr, ptr %16, align 8
  %18 = icmp ne ptr %17, null
  br i1 %18, label %19, label %27

19:                                               ; preds = %14
  %20 = load ptr, ptr %6, align 8
  %21 = getelementptr inbounds nuw %struct.http_header_entry_t, ptr %20, i32 0, i32 0
  %22 = load ptr, ptr %21, align 8
  %23 = load ptr, ptr %7, align 8
  %24 = call i32 @xstrcasecmp(ptr noundef %22, ptr noundef %23)
  %25 = icmp ne i32 %24, 0
  br i1 %25, label %27, label %26

26:                                               ; preds = %19
  store i32 1, ptr %3, align 4
  store i32 1, ptr %8, align 4
  br label %28

27:                                               ; preds = %19, %14
  store i32 0, ptr %3, align 4
  store i32 1, ptr %8, align 4
  br label %28

28:                                               ; preds = %27, %26, %13
  call void @llvm.lifetime.end.p0(i64 8, ptr %7) #8
  call void @llvm.lifetime.end.p0(i64 8, ptr %6) #8
  %29 = load i32, ptr %3, align 4
  ret i32 %29
}