; Function Attrs: nounwind uwtable
define internal range(i32 0, 2) i32 @_http_header_find_key(ptr noundef readonly captures(none) %0, ptr noundef %1) #0 {
  %3 = icmp eq ptr %1, null
  br i1 %3, label %9, label %4

4:                                                ; preds = %2
  %5 = load ptr, ptr %0, align 8
  %.not = icmp eq ptr %5, null
  br i1 %.not, label %8, label %6

6:                                                ; preds = %4
  %7 = tail call i32 @xstrcasecmp(ptr noundef nonnull %5, ptr noundef nonnull %1) #8
  %.not8 = icmp eq i32 %7, 0
  br i1 %.not8, label %9, label %8

8:                                                ; preds = %6, %4
  br label %9

9:                                                ; preds = %6, %2, %8
  %.0 = phi i32 [ 0, %8 ], [ 0, %2 ], [ 1, %6 ]
  ret i32 %.0
}